target datalayout = "e-m:e-p270:32:32-p271:32:32-p272:64:64-i64:64-i128:128-f80:128-n8:16:32:64-S128"
target triple = "x86_64-pc-linux-gnu"

%struct.Vec_Int_t_ = type { i32, i32, ptr }
%struct.Vec_Wrd_t_ = type { i32, i32, ptr }

; Function Attrs: nounwind uwtable
define internal ptr @Vec_IntLimit(ptr noundef %0) #0 {
  %2 = alloca ptr, align 8
  store ptr %0, ptr %2, align 8
  %3 = load ptr, ptr %2, align 8
  %4 = getelementptr inbounds %struct.Vec_Int_t_, ptr %3, i32 0, i32 2
  %5 = load ptr, ptr %4, align 8
  %6 = load ptr, ptr %2, align 8
  %7 = getelementptr inbounds %struct.Vec_Int_t_, ptr %6, i32 0, i32 1
  %8 = load i32, ptr %7, align 4
  %9 = sext i32 %8 to i64
  %10 = getelementptr inbounds i32, ptr %5, i64 %9
  ret ptr %10
}

; Function Attrs: nounwind uwtable
define internal ptr @Vec_IntArray(ptr noundef %0) #0 {
  %2 = alloca ptr, align 8
  store ptr %0, ptr %2, align 8
  %3 = load ptr, ptr %2, align 8
  %4 = getelementptr inbounds %struct.Vec_Int_t_, ptr %3, i32 0, i32 2
  %5 = load ptr, ptr %4, align 8
  ret ptr %5
}

; Function Attrs: nounwind uwtable
define internal void @Vec_IntWriteEntry(ptr noundef %0, i32 noundef %1, i32 noundef %2) #0 {
  %4 = alloca ptr, align 8
  %5 = alloca i32, align 4
  %6 = alloca i32, align 4
  store ptr %0, ptr %4, align 8
  store i32 %1, ptr %5, align 4
  store i32 %2, ptr %6, align 4
  %7 = load i32, ptr %6, align 4
  %8 = load ptr, ptr %4, align 8
  %9 = getelementptr inbounds %struct.Vec_Int_t_, ptr %8, i32 0, i32 2
  %10 = load ptr, ptr %9, align 8
  %11 = load i32, ptr %5, align 4
  %12 = sext i32 %11 to i64
  %13 = getelementptr inbounds i32, ptr %10, i64 %12
  store i32 %7, ptr %13, align 4
  ret void
}

; Function Attrs: nounwind uwtable
define internal i32 @Abc_Var2Lit(i32 noundef %0, i32 noundef %1) #0 {
  %3 = alloca i32, align 4
  %4 = alloca i32, align 4
  store i32 %0, ptr %3, align 4
  store i32 %1, ptr %4, align 4
  %5 = load i32, ptr %3, align 4
  %6 = load i32, ptr %3, align 4
  %7 = add nsw i32 %5, %6
  %8 = load i32, ptr %4, align 4
  %9 = add nsw i32 %7, %8
  ret i32 %9
}

; Function Attrs: nounwind uwtable
define internal i32 @Abc_TtEqual(ptr noundef %0, ptr noundef %1, i32 noundef %2) #0 {
  %4 = alloca i32, align 4
  %5 = alloca ptr, align 8
  %6 = alloca ptr, align 8
  %7 = alloca i32, align 4
  %8 = alloca i32, align 4
  store ptr %0, ptr %5, align 8
  store ptr %1, ptr %6, align 8
  store i32 %2, ptr %7, align 4
  store i32 0, ptr %8, align 4
  br label %9

9:                                                ; preds = %27, %3
  %10 = load i32, ptr %8, align 4
  %11 = load i32, ptr %7, align 4
  %12 = icmp slt i32 %10, %11
  br i1 %12, label %13, label %30

13:                                               ; preds = %9
  %14 = load ptr, ptr %5, align 8
  %15 = load i32, ptr %8, align 4
  %16 = sext i32 %15 to i64
  %17 = getelementptr inbounds i64, ptr %14, i64 %16
  %18 = load i64, ptr %17, align 8
  %19 = load ptr, ptr %6, align 8
  %20 = load i32, ptr %8, align 4
  %21 = sext i32 %20 to i64
  %22 = getelementptr inbounds i64, ptr %19, i64 %21
  %23 = load i64, ptr %22, align 8
  %24 = icmp ne i64 %18, %23
  br i1 %24, label %25, label %26

25:                                               ; preds = %13
  store i32 0, ptr %4, align 4
  br label %31

26:                                               ; preds = %13
  br label %27

27:                                               ; preds = %26
  %28 = load i32, ptr %8, align 4
  %29 = add nsw i32 %28, 1
  store i32 %29, ptr %8, align 4
  br label %9, !llvm.loop !114

30:                                               ; preds = %9
  store i32 1, ptr %4, align 4
  br label %31

31:                                               ; preds = %30, %25
  %32 = load i32, ptr %4, align 4
  ret i32 %32
}

; Function Attrs: nounwind uwtable
define internal void @Abc_TtOr(ptr noundef %0, ptr noundef %1, ptr noundef %2, i32 noundef %3) #0 {
  %5 = alloca ptr, align 8
  %6 = alloca ptr, align 8
  %7 = alloca ptr, align 8
  %8 = alloca i32, align 4
  %9 = alloca i32, align 4
  store ptr %0, ptr %5, align 8
  store ptr %1, ptr %6, align 8
  store ptr %2, ptr %7, align 8
  store i32 %3, ptr %8, align 4
  store i32 0, ptr %9, align 4
  br label %10

10:                                               ; preds = %30, %4
  %11 = load i32, ptr %9, align 4
  %12 = load i32, ptr %8, align 4
  %13 = icmp slt i32 %11, %12
  br i1 %13, label %14, label %33

14:                                               ; preds = %10
  %15 = load ptr, ptr %6, align 8
  %16 = load i32, ptr %9, align 4
  %17 = sext i32 %16 to i64
  %18 = getelementptr inbounds i64, ptr %15, i64 %17
  %19 = load i64, ptr %18, align 8
  %20 = load ptr, ptr %7, align 8
  %21 = load i32, ptr %9, align 4
  %22 = sext i32 %21 to i64
  %23 = getelementptr inbounds i64, ptr %20, i64 %22
  %24 = load i64, ptr %23, align 8
  %25 = or i64 %19, %24
  %26 = load ptr, ptr %5, align 8
  %27 = load i32, ptr %9, align 4
  %28 = sext i32 %27 to i64
  %29 = getelementptr inbounds i64, ptr %26, i64 %28
  store i64 %25, ptr %29, align 8
  br label %30

30:                                               ; preds = %14
  %31 = load i32, ptr %9, align 4
  %32 = add nsw i32 %31, 1
  store i32 %32, ptr %9, align 4
  br label %10, !llvm.loop !113

33:                                               ; preds = %10
  ret void
}

; Function Attrs: nounwind uwtable
define internal ptr @Vec_WrdEntryP(ptr noundef %0, i32 noundef %1) #0 {
  %3 = alloca ptr, align 8
  %4 = alloca i32, align 4
  store ptr %0, ptr %3, align 8
  store i32 %1, ptr %4, align 4
  %5 = load ptr, ptr %3, align 8
  %6 = getelementptr inbounds %struct.Vec_Wrd_t_, ptr %5, i32 0, i32 2
  %7 = load ptr, ptr %6, align 8
  %8 = load i32, ptr %4, align 4
  %9 = sext i32 %8 to i64
  %10 = getelementptr inbounds i64, ptr %7, i64 %9
  ret ptr %10
}

; Function Attrs: nounwind uwtable
define internal i32 @Abc_Lit2Var(i32 noundef %0) #0 {
  %2 = alloca i32, align 4
  store i32 %0, ptr %2, align 4
  %3 = load i32, ptr %2, align 4
  %4 = ashr i32 %3, 1
  ret i32 %4
}

; Function Attrs: nounwind uwtable
define internal i32 @Vec_IntEntry(ptr noundef %0, i32 noundef %1) #0 {
  %3 = alloca ptr, align 8
  %4 = alloca i32, align 4
  store ptr %0, ptr %3, align 8
  store i32 %1, ptr %4, align 4
  %5 = load ptr, ptr %3, align 8
  %6 = getelementptr inbounds %struct.Vec_Int_t_, ptr %5, i32 0, i32 2
  %7 = load ptr, ptr %6, align 8
  %8 = load i32, ptr %4, align 4
  %9 = sext i32 %8 to i64
  %10 = getelementptr inbounds i32, ptr %7, i64 %9
  %11 = load i32, ptr %10, align 4
  ret i32 %11
}

; Function Attrs: nounwind uwtable
define internal i32 @Vec_IntSize(ptr noundef %0) #0 {
  %2 = alloca ptr, align 8
  store ptr %0, ptr %2, align 8
  %3 = load ptr, ptr %2, align 8
  %4 = getelementptr inbounds %struct.Vec_Int_t_, ptr %3, i32 0, i32 1
  %5 = load i32, ptr %4, align 4
  ret i32 %5
}

; Function Attrs: nounwind uwtable
define internal void @Abc_TtSetBit(ptr noundef %0, i32 noundef %1) #0 {
  %3 = alloca ptr, align 8
  %4 = alloca i32, align 4
  store ptr %0, ptr %3, align 8
  store i32 %1, ptr %4, align 4
  %5 = load i32, ptr %4, align 4
  %6 = and i32 %5, 63
  %7 = zext i32 %6 to i64
  %8 = shl i64 1, %7
  %9 = load ptr, ptr %3, align 8
  %10 = load i32, ptr %4, align 4
  %11 = ashr i32 %10, 6
  %12 = sext i32 %11 to i64
  %13 = getelementptr inbounds i64, ptr %9, i64 %12
  %14 = load i64, ptr %13, align 8
  %15 = or i64 %14, %8
  store i64 %15, ptr %13, align 8
  ret void
}

; Function Attrs: nounwind uwtable
define internal void @Abc_TtConst(ptr noundef %0, i32 noundef %1, i32 noundef %2) #0 {
  %4 = alloca ptr, align 8
  %5 = alloca i32, align 4
  %6 = alloca i32, align 4
  %7 = alloca i32, align 4
  store ptr %0, ptr %4, align 8
  store i32 %1, ptr %5, align 4
  store i32 %2, ptr %6, align 4
  store i32 0, ptr %7, align 4
  br label %8

8:                                                ; preds = %20, %3
  %9 = load i32, ptr %7, align 4
  %10 = load i32, ptr %5, align 4
  %11 = icmp slt i32 %9, %10
  br i1 %11, label %12, label %23

12:                                               ; preds = %8
  %13 = load i32, ptr %6, align 4
  %14 = icmp ne i32 %13, 0
  %15 = select i1 %14, i64 -1, i64 0
  %16 = load ptr, ptr %4, align 8
  %17 = load i32, ptr %7, align 4
  %18 = sext i32 %17 to i64
  %19 = getelementptr inbounds i64, ptr %16, i64 %18
  store i64 %15, ptr %19, align 8
  br label %20

20:                                               ; preds = %12
  %21 = load i32, ptr %7, align 4
  %22 = add nsw i32 %21, 1
  store i32 %22, ptr %7, align 4
  br label %8, !llvm.loop !103

23:                                               ; preds = %8
  ret void
}

; Function Attrs: nounwind uwtable
define internal i32 @Abc_Bit6WordNum(i32 noundef %0) #0 {
  %2 = alloca i32, align 4
  store i32 %0, ptr %2, align 4
  %3 = load i32, ptr %2, align 4
  %4 = ashr i32 %3, 6
  %5 = load i32, ptr %2, align 4
  %6 = and i32 %5, 63
  %7 = icmp sgt i32 %6, 0
  %8 = zext i1 %7 to i32
  %9 = add nsw i32 %4, %8
  ret i32 %9
}

; Function Attrs: nounwind uwtable
define void @Acb_FindReplace(ptr noundef %0, i32 noundef %1, ptr noundef %2, ptr noundef %3, i32 noundef %4, ptr noundef %5) #0 {
  %7 = alloca ptr, align 8
  %8 = alloca i32, align 4
  %9 = alloca ptr, align 8
  %10 = alloca ptr, align 8
  %11 = alloca i32, align 4
  %12 = alloca ptr, align 8
  %13 = alloca i32, align 4
  %14 = alloca i32, align 4
  %15 = alloca i32, align 4
  %16 = alloca i32, align 4
  %17 = alloca i32, align 4
  %18 = alloca i32, align 4
  %19 = alloca [256 x i64], align 16
  %20 = alloca [256 x i64], align 16
  %21 = alloca [256 x i64], align 16
  %22 = alloca ptr, align 8
  %23 = alloca i32, align 4
  store ptr %0, ptr %7, align 8
  store i32 %1, ptr %8, align 4
  store ptr %2, ptr %9, align 8
  store ptr %3, ptr %10, align 8
  store i32 %4, ptr %11, align 4
  store ptr %5, ptr %12, align 8
  %24 = load i32, ptr %11, align 4
  %25 = call i32 @Abc_Bit6WordNum(i32 noundef %24)
  store i32 %25, ptr %18, align 4
  %26 = getelementptr inbounds [256 x i64], ptr %21, i64 0, i64 0
  %27 = load i32, ptr %18, align 4
  call void @Abc_TtConst(ptr noundef %26, i32 noundef %27, i32 noundef 0)
  store i32 0, ptr %13, align 4
  br label %28

28:                                               ; preds = %35, %6
  %29 = load i32, ptr %13, align 4
  %30 = load i32, ptr %11, align 4
  %31 = icmp slt i32 %29, %30
  br i1 %31, label %32, label %38

32:                                               ; preds = %28
  %33 = getelementptr inbounds [256 x i64], ptr %21, i64 0, i64 0
  %34 = load i32, ptr %13, align 4
  call void @Abc_TtSetBit(ptr noundef %33, i32 noundef %34)
  br label %35

35:                                               ; preds = %32
  %36 = load i32, ptr %13, align 4
  %37 = add nsw i32 %36, 1
  store i32 %37, ptr %13, align 4
  br label %28, !llvm.loop !109

38:                                               ; preds = %28
  store i32 0, ptr %13, align 4
  br label %39

39:                                               ; preds = %141, %38
  %40 = load i32, ptr %13, align 4
  %41 = load ptr, ptr %12, align 8
  %42 = call i32 @Vec_IntSize(ptr noundef %41)
  %43 = icmp slt i32 %40, %42
  br i1 %43, label %44, label %48

44:                                               ; preds = %39
  %45 = load ptr, ptr %12, align 8
  %46 = load i32, ptr %13, align 4
  %47 = call i32 @Vec_IntEntry(ptr noundef %45, i32 noundef %46)
  store i32 %47, ptr %15, align 4
  br label %48

48:                                               ; preds = %44, %39
  %49 = phi i1 [ false, %39 ], [ true, %44 ]
  br i1 %49, label %50, label %144

50:                                               ; preds = %48
  %51 = load i32, ptr %15, align 4
  %52 = call i32 @Abc_Lit2Var(i32 noundef %51)
  %53 = load i32, ptr %8, align 4
  %54 = sub nsw i32 %52, %53
  store i32 %54, ptr %23, align 4
  %55 = getelementptr inbounds [256 x i64], ptr %19, i64 0, i64 0
  %56 = load i32, ptr %18, align 4
  call void @Abc_TtConst(ptr noundef %55, i32 noundef %56, i32 noundef 0)
  store i32 0, ptr %14, align 4
  br label %57

57:                                               ; preds = %85, %50
  %58 = load i32, ptr %14, align 4
  %59 = load ptr, ptr %12, align 8
  %60 = call i32 @Vec_IntSize(ptr noundef %59)
  %61 = icmp slt i32 %58, %60
  br i1 %61, label %62, label %66

62:                                               ; preds = %57
  %63 = load ptr, ptr %12, align 8
  %64 = load i32, ptr %14, align 4
  %65 = call i32 @Vec_IntEntry(ptr noundef %63, i32 noundef %64)
  store i32 %65, ptr %16, align 4
  br label %66

66:                                               ; preds = %62, %57
  %67 = phi i1 [ false, %57 ], [ true, %62 ]
  br i1 %67, label %68, label %88

68:                                               ; preds = %66
  %69 = load i32, ptr %16, align 4
  %70 = load i32, ptr %15, align 4
  %71 = icmp eq i32 %69, %70
  br i1 %71, label %72, label %73

72:                                               ; preds = %68
  br label %85

73:                                               ; preds = %68
  %74 = load ptr, ptr %10, align 8
  %75 = load i32, ptr %16, align 4
  %76 = call i32 @Abc_Lit2Var(i32 noundef %75)
  %77 = load i32, ptr %8, align 4
  %78 = sub nsw i32 %76, %77
  %79 = mul nsw i32 256, %78
  %80 = call ptr @Vec_WrdEntryP(ptr noundef %74, i32 noundef %79)
  store ptr %80, ptr %22, align 8
  %81 = getelementptr inbounds [256 x i64], ptr %19, i64 0, i64 0
  %82 = getelementptr inbounds [256 x i64], ptr %19, i64 0, i64 0
  %83 = load ptr, ptr %22, align 8
  %84 = load i32, ptr %18, align 4
  call void @Abc_TtOr(ptr noundef %81, ptr noundef %82, ptr noundef %83, i32 noundef %84)
  br label %85

85:                                               ; preds = %73, %72
  %86 = load i32, ptr %14, align 4
  %87 = add nsw i32 %86, 1
  store i32 %87, ptr %14, align 4
  br label %57, !llvm.loop !110

88:                                               ; preds = %66
  store i32 0, ptr %14, align 4
  br label %89

89:                                               ; preds = %137, %88
  %90 = load i32, ptr %14, align 4
  %91 = load i32, ptr %23, align 4
  %92 = icmp slt i32 %90, %91
  br i1 %92, label %93, label %140

93:                                               ; preds = %89
  %94 = load ptr, ptr %9, align 8
  %95 = load i32, ptr %14, align 4
  %96 = call i32 @Vec_IntEntry(ptr noundef %94, i32 noundef %95)
  %97 = load ptr, ptr %9, align 8
  %98 = load i32, ptr %23, align 4
  %99 = call i32 @Vec_IntEntry(ptr noundef %97, i32 noundef %98)
  %100 = icmp eq i32 %96, %99
  br i1 %100, label %101, label %102

101:                                              ; preds = %93
  br label %137

102:                                              ; preds = %93
  %103 = load ptr, ptr %10, align 8
  %104 = load i32, ptr %14, align 4
  %105 = mul nsw i32 256, %104
  %106 = call ptr @Vec_WrdEntryP(ptr noundef %103, i32 noundef %105)
  store ptr %106, ptr %22, align 8
  %107 = getelementptr inbounds [256 x i64], ptr %20, i64 0, i64 0
  %108 = getelementptr inbounds [256 x i64], ptr %19, i64 0, i64 0
  %109 = load ptr, ptr %22, align 8
  %110 = load i32, ptr %18, align 4
  call void @Abc_TtOr(ptr noundef %107, ptr noundef %108, ptr noundef %109, i32 noundef %110)
  %111 = getelementptr inbounds [256 x i64], ptr %20, i64 0, i64 0
  %112 = getelementptr inbounds [256 x i64], ptr %21, i64 0, i64 0
  %113 = load i32, ptr %18, align 4
  %114 = call i32 @Abc_TtEqual(ptr noundef %111, ptr noundef %112, i32 noundef %113)
  %115 = icmp ne i32 %114, 0
  br i1 %115, label %117, label %116

116:                                              ; preds = %102
  br label %137

117:                                              ; preds = %102
  %118 = load ptr, ptr %12, align 8
  %119 = load i32, ptr %13, align 4
  %120 = load i32, ptr %8, align 4
  %121 = load i32, ptr %14, align 4
  %122 = add nsw i32 %120, %121
  %123 = call i32 @Abc_Var2Lit(i32 noundef %122, i32 noundef 1)
  call void @Vec_IntWriteEntry(ptr noundef %118, i32 noundef %119, i32 noundef %123)
  %124 = load ptr, ptr %7, align 8
  %125 = load ptr, ptr %12, align 8
  %126 = call ptr @Vec_IntArray(ptr noundef %125)
  %127 = load ptr, ptr %12, align 8
  %128 = call ptr @Vec_IntLimit(ptr noundef %127)
  %129 = call i32 @sat_solver_solve(ptr noundef %124, ptr noundef %126, ptr noundef %128, i64 noundef 0, i64 noundef 0, i64 noundef 0, i64 noundef 0)
  store i32 %129, ptr %17, align 4
  %130 = load i32, ptr %17, align 4
  %131 = icmp eq i32 %130, -1
  br i1 %131, label %132, label %133

132:                                              ; preds = %117
  br label %140

133:                                              ; preds = %117
  %134 = load ptr, ptr %12, align 8
  %135 = load i32, ptr %13, align 4
  %136 = load i32, ptr %15, align 4
  call void @Vec_IntWriteEntry(ptr noundef %134, i32 noundef %135, i32 noundef %136)
  br label %137

137:                                              ; preds = %133, %116, %101
  %138 = load i32, ptr %14, align 4
  %139 = add nsw i32 %138, 1
  store i32 %139, ptr %14, align 4
  br label %89, !llvm.loop !111

140:                                              ; preds = %132, %89
  br label %141

141:                                              ; preds = %140
  %142 = load i32, ptr %13, align 4
  %143 = add nsw i32 %142, 1
  store i32 %143, ptr %13, align 4
  br label %39, !llvm.loop !112

144:                                              ; preds = %48
  ret void
}