; Function Attrs: nounwind uwtable
define void @Acb_FindReplace(ptr noundef %0, i32 noundef %1, ptr noundef readonly captures(none) %2, ptr noundef readonly captures(none) %3, i32 noundef %4, ptr noundef readonly captures(none) %5) local_unnamed_addr #0 {
  %7 = alloca [256 x i64], align 16
  %8 = alloca [256 x i64], align 16
  %9 = alloca [256 x i64], align 16
  %10 = ashr i32 %4, 6
  %11 = and i32 %4, 63
  %12 = icmp ne i32 %11, 0
  %13 = zext i1 %12 to i32
  %14 = add nsw i32 %10, %13
  %15 = icmp sgt i32 %14, 0
  br i1 %15, label %.lr.ph.i, label %Abc_TtConst.exit

.lr.ph.i:                                         ; preds = %6
  %wide.trip.count.i = zext nneg i32 %14 to i64
  %16 = shl nuw nsw i64 %wide.trip.count.i, 3
  call void @llvm.memset.p0.i64(ptr nonnull align 16 %9, i8 0, i64 %16, i1 false)
  br label %Abc_TtConst.exit

Abc_TtConst.exit:                                 ; preds = %.lr.ph.i, %6
  %17 = icmp sgt i32 %4, 0
  br i1 %17, label %.lr.ph, label %.preheader

.preheader:                                       ; preds = %.lr.ph, %Abc_TtConst.exit
  %18 = getelementptr i8, ptr %5, i64 4
  %.val5497 = load i32, ptr %18, align 4
  %19 = icmp sgt i32 %.val5497, 0
  br i1 %19, label %.lr.ph100, label %.critedge

.lr.ph100:                                        ; preds = %.preheader
  %20 = getelementptr i8, ptr %5, i64 8
  %wide.trip.count.i67 = zext i32 %14 to i64
  %21 = getelementptr i8, ptr %3, i64 8
  %22 = getelementptr i8, ptr %2, i64 8
  %23 = shl nuw nsw i64 %wide.trip.count.i67, 3
  br label %33

.lr.ph:                                           ; preds = %Abc_TtConst.exit, %.lr.ph
  %.092 = phi i32 [ %32, %.lr.ph ], [ 0, %Abc_TtConst.exit ]
  %24 = and i32 %.092, 63
  %25 = zext nneg i32 %24 to i64
  %26 = shl nuw i64 1, %25
  %27 = lshr i32 %.092, 6
  %28 = zext nneg i32 %27 to i64
  %29 = getelementptr inbounds nuw i64, ptr %9, i64 %28
  %30 = load i64, ptr %29, align 8
  %31 = or i64 %30, %26
  store i64 %31, ptr %29, align 8
  %32 = add nuw nsw i32 %.092, 1
  %exitcond.not = icmp eq i32 %32, %4
  br i1 %exitcond.not, label %.preheader, label %.lr.ph, !llvm.loop !105

33:                                               ; preds = %.lr.ph100, %.critedge2._crit_edge
  %.val54112 = phi i32 [ %.val5497, %.lr.ph100 ], [ %.val54, %.critedge2._crit_edge ]
  %indvars.iv109 = phi i64 [ 0, %.lr.ph100 ], [ %indvars.iv.next110, %.critedge2._crit_edge ]
  %.val58 = load ptr, ptr %20, align 8
  %34 = getelementptr inbounds nuw i32, ptr %.val58, i64 %indvars.iv109
  %35 = load i32, ptr %34, align 4
  %36 = ashr i32 %35, 1
  %37 = sub i32 %36, %1
  br i1 %15, label %Abc_TtConst.exit71, label %.critedge2.preheader

Abc_TtConst.exit71:                               ; preds = %33
  call void @llvm.memset.p0.i64(ptr nonnull align 16 %7, i8 0, i64 %23, i1 false)
  %38 = icmp sgt i32 %.val54112, 0
  br i1 %38, label %.lr.ph94.split.us.preheader, label %.critedge2.preheader

.lr.ph94.split.us.preheader:                      ; preds = %Abc_TtConst.exit71
  %wide.trip.count = zext nneg i32 %.val54112 to i64
  br label %.lr.ph94.split.us

.lr.ph94.split.us:                                ; preds = %.lr.ph94.split.us.preheader, %Abc_TtOr.exit.us
  %indvars.iv = phi i64 [ 0, %.lr.ph94.split.us.preheader ], [ %indvars.iv.next, %Abc_TtOr.exit.us ]
  %39 = getelementptr inbounds nuw i32, ptr %.val58, i64 %indvars.iv
  %40 = load i32, ptr %39, align 4
  %41 = icmp eq i32 %40, %35
  br i1 %41, label %Abc_TtOr.exit.us, label %.lr.ph.preheader.i.us

.lr.ph.preheader.i.us:                            ; preds = %.lr.ph94.split.us
  %42 = ashr i32 %40, 1
  %43 = sub nsw i32 %42, %1
  %44 = shl nsw i32 %43, 8
  %.val63.us = load ptr, ptr %21, align 8
  %45 = sext i32 %44 to i64
  %46 = getelementptr inbounds i64, ptr %.val63.us, i64 %45
  br label %.lr.ph.i73.us

.lr.ph.i73.us:                                    ; preds = %.lr.ph.i73.us, %.lr.ph.preheader.i.us
  %indvars.iv.i74.us = phi i64 [ 0, %.lr.ph.preheader.i.us ], [ %indvars.iv.next.i75.us, %.lr.ph.i73.us ]
  %47 = getelementptr inbounds nuw i64, ptr %7, i64 %indvars.iv.i74.us
  %48 = load i64, ptr %47, align 8
  %49 = getelementptr inbounds nuw i64, ptr %46, i64 %indvars.iv.i74.us
  %50 = load i64, ptr %49, align 8
  %51 = or i64 %50, %48
  store i64 %51, ptr %47, align 8
  %indvars.iv.next.i75.us = add nuw nsw i64 %indvars.iv.i74.us, 1
  %exitcond.not.i76.us = icmp eq i64 %indvars.iv.next.i75.us, %wide.trip.count.i67
  br i1 %exitcond.not.i76.us, label %Abc_TtOr.exit.us, label %.lr.ph.i73.us, !llvm.loop !106

Abc_TtOr.exit.us:                                 ; preds = %.lr.ph.i73.us, %.lr.ph94.split.us
  %indvars.iv.next = add nuw nsw i64 %indvars.iv, 1
  %exitcond103.not = icmp eq i64 %indvars.iv.next, %wide.trip.count
  br i1 %exitcond103.not, label %.critedge2.preheader, label %.lr.ph94.split.us, !llvm.loop !107

.critedge2.preheader:                             ; preds = %Abc_TtOr.exit.us, %33, %Abc_TtConst.exit71
  %52 = icmp sgt i32 %37, 0
  br i1 %52, label %.lr.ph96, label %.critedge2._crit_edge

.lr.ph96:                                         ; preds = %.critedge2.preheader
  %53 = zext nneg i32 %37 to i64
  br label %54

54:                                               ; preds = %.lr.ph96, %Abc_TtEqual.exit
  %indvars.iv104 = phi i64 [ 0, %.lr.ph96 ], [ %indvars.iv.next105, %Abc_TtEqual.exit ]
  %.val56 = load ptr, ptr %22, align 8
  %55 = getelementptr inbounds nuw i32, ptr %.val56, i64 %indvars.iv104
  %56 = load i32, ptr %55, align 4
  %57 = getelementptr inbounds nuw i32, ptr %.val56, i64 %53
  %58 = load i32, ptr %57, align 4
  %59 = icmp eq i32 %56, %58
  br i1 %59, label %Abc_TtEqual.exit, label %60

60:                                               ; preds = %54
  %.val62 = load ptr, ptr %21, align 8
  %.idx = shl nsw i64 %indvars.iv104, 11
  %61 = getelementptr inbounds nuw i8, ptr %.val62, i64 %.idx
  br i1 %15, label %.lr.ph.i79, label %Abc_TtOr.exit83.thread

.lr.ph.i79:                                       ; preds = %60, %.lr.ph.i79
  %indvars.iv.i80 = phi i64 [ %indvars.iv.next.i81, %.lr.ph.i79 ], [ 0, %60 ]
  %62 = getelementptr inbounds nuw i64, ptr %7, i64 %indvars.iv.i80
  %63 = load i64, ptr %62, align 8
  %64 = getelementptr inbounds nuw i64, ptr %61, i64 %indvars.iv.i80
  %65 = load i64, ptr %64, align 8
  %66 = or i64 %65, %63
  %67 = getelementptr inbounds nuw i64, ptr %8, i64 %indvars.iv.i80
  store i64 %66, ptr %67, align 8
  %indvars.iv.next.i81 = add nuw nsw i64 %indvars.iv.i80, 1
  %exitcond.not.i82 = icmp eq i64 %indvars.iv.next.i81, %wide.trip.count.i67
  br i1 %exitcond.not.i82, label %.lr.ph.i86, label %.lr.ph.i79, !llvm.loop !106

68:                                               ; preds = %.lr.ph.i86
  %indvars.iv.next.i88 = add nuw nsw i64 %indvars.iv.i87, 1
  %exitcond.not.i89 = icmp eq i64 %indvars.iv.next.i88, %wide.trip.count.i67
  br i1 %exitcond.not.i89, label %Abc_TtOr.exit83.thread, label %.lr.ph.i86, !llvm.loop !108

.lr.ph.i86:                                       ; preds = %.lr.ph.i79, %68
  %indvars.iv.i87 = phi i64 [ %indvars.iv.next.i88, %68 ], [ 0, %.lr.ph.i79 ]
  %69 = getelementptr inbounds nuw i64, ptr %8, i64 %indvars.iv.i87
  %70 = load i64, ptr %69, align 8
  %71 = getelementptr inbounds nuw i64, ptr %9, i64 %indvars.iv.i87
  %72 = load i64, ptr %71, align 8
  %.not.i = icmp eq i64 %70, %72
  br i1 %.not.i, label %68, label %Abc_TtEqual.exit

Abc_TtOr.exit83.thread:                           ; preds = %68, %60
  %.val60 = load ptr, ptr %20, align 8
  %73 = getelementptr inbounds nuw i32, ptr %.val60, i64 %indvars.iv109
  %74 = trunc i64 %indvars.iv104 to i32
  %.tr = add i32 %1, %74
  %75 = shl i32 %.tr, 1
  %76 = or disjoint i32 %75, 1
  store i32 %76, ptr %73, align 4
  %.val61 = load ptr, ptr %20, align 8
  %.val64 = load i32, ptr %18, align 4
  %77 = sext i32 %.val64 to i64
  %78 = getelementptr inbounds i32, ptr %.val61, i64 %77
  %79 = tail call i32 @sat_solver_solve(ptr noundef %0, ptr noundef %.val61, ptr noundef %78, i64 noundef 0, i64 noundef 0, i64 noundef 0, i64 noundef 0) #31
  %80 = icmp eq i32 %79, -1
  br i1 %80, label %.critedge2._crit_edge.loopexit, label %81

81:                                               ; preds = %Abc_TtOr.exit83.thread
  %.val59 = load ptr, ptr %20, align 8
  %82 = getelementptr inbounds nuw i32, ptr %.val59, i64 %indvars.iv109
  store i32 %35, ptr %82, align 4
  br label %Abc_TtEqual.exit

Abc_TtEqual.exit:                                 ; preds = %.lr.ph.i86, %54, %81
  %indvars.iv.next105 = add nuw nsw i64 %indvars.iv104, 1
  %exitcond108.not = icmp eq i64 %indvars.iv.next105, %53
  br i1 %exitcond108.not, label %.critedge2._crit_edge.loopexit, label %54, !llvm.loop !109

.critedge2._crit_edge.loopexit:                   ; preds = %Abc_TtEqual.exit, %Abc_TtOr.exit83.thread
  %.val54.pre = load i32, ptr %18, align 4
  br label %.critedge2._crit_edge

.critedge2._crit_edge:                            ; preds = %.critedge2._crit_edge.loopexit, %.critedge2.preheader
  %.val54 = phi i32 [ %.val54.pre, %.critedge2._crit_edge.loopexit ], [ %.val54112, %.critedge2.preheader ]
  %indvars.iv.next110 = add nuw nsw i64 %indvars.iv109, 1
  %83 = sext i32 %.val54 to i64
  %84 = icmp slt i64 %indvars.iv.next110, %83
  br i1 %84, label %33, label %.critedge, !llvm.loop !110

.critedge:                                        ; preds = %.critedge2._crit_edge, %.preheader
  ret void
}